; Function Attrs: mustprogress nounwind uwtable
define hidden void @_ZN15ClassListParser5parseEP10JavaThread(ptr noundef nonnull align 8 dereferenceable(520) %0, ptr noundef %1) local_unnamed_addr #0 align 2 {
  %3 = getelementptr inbounds i8, ptr %0, i64 120
  %4 = getelementptr inbounds i8, ptr %0, i64 184
  %5 = getelementptr inbounds i8, ptr %0, i64 176
  %6 = getelementptr inbounds i8, ptr %0, i64 168
  %7 = getelementptr inbounds i8, ptr %0, i64 160
  %8 = getelementptr inbounds i8, ptr %0, i64 144
  %9 = getelementptr inbounds i8, ptr %0, i64 440
  %10 = getelementptr inbounds i8, ptr %0, i64 448
  %11 = getelementptr inbounds i8, ptr %1, i64 8
  br label %12

12:                                               ; preds = %60, %2
  %13 = load i64, ptr %4, align 8
  %14 = load i64, ptr %5, align 8
  %15 = icmp eq i64 %13, %14
  br i1 %15, label %16, label %_ZNK11inputStream4doneEv.exit

16:                                               ; preds = %12
  %17 = tail call noundef zeroext i1 @_ZN11inputStream11fill_bufferEv(ptr noundef nonnull align 8 dereferenceable(320) %3) #19
  %.pre.i = load i64, ptr %4, align 8
  br label %_ZNK11inputStream4doneEv.exit

_ZNK11inputStream4doneEv.exit:                    ; preds = %12, %16
  %18 = phi i64 [ %13, %12 ], [ %.pre.i, %16 ]
  %19 = load i64, ptr %6, align 8
  %20 = load i64, ptr %7, align 8
  %21 = icmp eq i64 %19, %20
  %22 = icmp ugt i64 %18, %20
  %23 = select i1 %21, i1 %22, i1 false
  br i1 %23, label %62, label %24

24:                                               ; preds = %_ZNK11inputStream4doneEv.exit
  %25 = load i64, ptr %5, align 8
  %26 = icmp eq i64 %18, %25
  br i1 %26, label %27, label %_ZNK11inputStream12current_lineEv.exit

27:                                               ; preds = %24
  %28 = tail call noundef zeroext i1 @_ZN11inputStream11fill_bufferEv(ptr noundef nonnull align 8 dereferenceable(320) %3) #19
  %.pre.i5 = load i64, ptr %4, align 8
  %.pre = load i64, ptr %6, align 8
  %.pre7 = load i64, ptr %7, align 8
  br label %_ZNK11inputStream12current_lineEv.exit

_ZNK11inputStream12current_lineEv.exit:           ; preds = %24, %27
  %29 = phi i64 [ %20, %24 ], [ %.pre7, %27 ]
  %30 = phi i64 [ %19, %24 ], [ %.pre, %27 ]
  %31 = phi i64 [ %18, %24 ], [ %.pre.i5, %27 ]
  %32 = icmp eq i64 %30, %29
  %33 = icmp ugt i64 %31, %29
  %34 = select i1 %32, i1 %33, i1 false
  %35 = load ptr, ptr %8, align 8
  %36 = getelementptr inbounds i8, ptr %35, i64 %30
  %.0.i = select i1 %34, ptr @.str.8, ptr %36
  store ptr %.0.i, ptr %9, align 8
  %37 = tail call i64 @strlen(ptr noundef nonnull dereferenceable(1) %.0.i) #20
  %38 = trunc i64 %37 to i32
  %39 = icmp sgt i32 %38, 0
  br i1 %39, label %.lr.ph.preheader.i, label %_ZN15ClassListParser19clean_up_input_lineEv.exit

.lr.ph.preheader.i:                               ; preds = %_ZNK11inputStream12current_lineEv.exit
  %wide.trip.count.i = and i64 %37, 2147483647
  br label %.lr.ph.i

.lr.ph.i:                                         ; preds = %44, %.lr.ph.preheader.i
  %indvars.iv.i = phi i64 [ 0, %.lr.ph.preheader.i ], [ %indvars.iv.next.i, %44 ]
  %40 = load ptr, ptr %9, align 8
  %41 = getelementptr inbounds i8, ptr %40, i64 %indvars.iv.i
  %42 = load i8, ptr %41, align 1
  switch i8 %42, label %44 [
    i8 9, label %43
    i8 13, label %43
    i8 10, label %43
    i8 12, label %43
  ]

43:                                               ; preds = %.lr.ph.i, %.lr.ph.i, %.lr.ph.i, %.lr.ph.i
  store i8 32, ptr %41, align 1
  br label %44

44:                                               ; preds = %43, %.lr.ph.i
  %indvars.iv.next.i = add nuw nsw i64 %indvars.iv.i, 1
  %exitcond.not.i = icmp eq i64 %indvars.iv.next.i, %wide.trip.count.i
  br i1 %exitcond.not.i, label %.lr.ph18.i, label %.lr.ph.i, !llvm.loop !9

.lr.ph18.i:                                       ; preds = %44, %51
  %.01317.i = phi i32 [ %52, %51 ], [ %38, %44 ]
  %45 = load ptr, ptr %9, align 8
  %46 = zext nneg i32 %.01317.i to i64
  %47 = getelementptr i8, ptr %45, i64 %46
  %48 = getelementptr i8, ptr %47, i64 -1
  %49 = load i8, ptr %48, align 1
  %50 = icmp eq i8 %49, 32
  br i1 %50, label %51, label %_ZN15ClassListParser19clean_up_input_lineEv.exit

51:                                               ; preds = %.lr.ph18.i
  store i8 0, ptr %48, align 1
  %52 = add nsw i32 %.01317.i, -1
  %53 = icmp sgt i32 %.01317.i, 1
  br i1 %53, label %.lr.ph18.i, label %._ZN15ClassListParser19clean_up_input_lineEv.exit.loopexit_crit_edge, !llvm.loop !10

._ZN15ClassListParser19clean_up_input_lineEv.exit.loopexit_crit_edge: ; preds = %51
  %.pre8.pre = load ptr, ptr %9, align 8
  br label %_ZN15ClassListParser19clean_up_input_lineEv.exit

_ZN15ClassListParser19clean_up_input_lineEv.exit: ; preds = %.lr.ph18.i, %._ZN15ClassListParser19clean_up_input_lineEv.exit.loopexit_crit_edge, %_ZNK11inputStream12current_lineEv.exit
  %54 = phi ptr [ %.0.i, %_ZNK11inputStream12current_lineEv.exit ], [ %.pre8.pre, %._ZN15ClassListParser19clean_up_input_lineEv.exit.loopexit_crit_edge ], [ %45, %.lr.ph18.i ]
  %.013.lcssa.i = phi i32 [ %38, %_ZNK11inputStream12current_lineEv.exit ], [ 0, %._ZN15ClassListParser19clean_up_input_lineEv.exit.loopexit_crit_edge ], [ %.01317.i, %.lr.ph18.i ]
  store i32 %.013.lcssa.i, ptr %10, align 8
  %55 = load i8, ptr %54, align 1
  switch i8 %55, label %58 [
    i8 35, label %60
    i8 64, label %56
  ]

56:                                               ; preds = %_ZN15ClassListParser19clean_up_input_lineEv.exit
  tail call void @_ZN15ClassListParser13parse_at_tagsEP10JavaThread(ptr noundef nonnull align 8 dereferenceable(520) %0, ptr noundef %1)
  %57 = load ptr, ptr %11, align 8
  %.not = icmp eq ptr %57, null
  br i1 %.not, label %60, label %62

58:                                               ; preds = %_ZN15ClassListParser19clean_up_input_lineEv.exit
  tail call void @_ZN15ClassListParser31parse_class_name_and_attributesEP10JavaThread(ptr noundef nonnull align 8 dereferenceable(520) %0, ptr noundef %1)
  %59 = load ptr, ptr %11, align 8
  %.not6 = icmp eq ptr %59, null
  br i1 %.not6, label %60, label %62

60:                                               ; preds = %_ZN15ClassListParser19clean_up_input_lineEv.exit, %58, %56
  %61 = tail call noundef zeroext i1 @_ZN11inputStream4nextEv(ptr noundef nonnull align 8 dereferenceable(320) %3) #19
  br label %12, !llvm.loop !11

62:                                               ; preds = %58, %56, %_ZNK11inputStream4doneEv.exit
  ret void
}